(dp0
S'weights1'
p1
(lp2
F3.44e-07
aF0.00032
aF-6.91
aF-7.2
aF1.245e-06
asS'weights0'
p3
(lp4
F0.0238043900634
aF0.0368345547882
aF0.000121
aF1.762e-05
aF4.551e-06
asS'segment0tol'
p5
F0.00765
sS'segment0'
p6
(lp7
F0.0188043900634
aF0.0368345547882
aI0
aI0
as.